target datalayout = "e-m:e-p270:32:32-p271:32:32-p272:64:64-i64:64-i128:128-f80:128-n8:16:32:64-S128"
target triple = "x86_64-pc-linux-gnu"

%struct.RBasic = type { i64, i64 }
%struct.RString = type { %struct.RBasic, i64, %union.anon.1 }
%union.anon.1 = type { %struct.anon.2 }
%struct.anon.2 = type { ptr, %union.anon.3 }
%union.anon.3 = type { i64 }

@.str.7 = private unnamed_addr constant [3 x i8] c": \00", align 1
@.str.8 = private unnamed_addr constant [7 x i8] c"(null)\00", align 1
@.str.9 = private unnamed_addr constant [6 x i8] c" (%s)\00", align 1

; Function Attrs: inlinehint nounwind sspstrong uwtable
define internal i64 @rbimpl_strlen(ptr noundef nonnull %0) #2 {
  %2 = alloca ptr, align 8
  store ptr %0, ptr %2, align 8, !tbaa !19
  %3 = load ptr, ptr %2, align 8, !tbaa !19
  %4 = call i64 @strlen(ptr noundef %3) #24
  ret i64 %4
}

; Function Attrs: inlinehint nounwind sspstrong uwtable
define internal i64 @rbimpl_str_cat_cstr(i64 noundef %0, ptr noundef nonnull %1) #2 {
  %3 = alloca i64, align 8
  %4 = alloca ptr, align 8
  %5 = alloca i64, align 8
  store i64 %0, ptr %3, align 8, !tbaa !6
  store ptr %1, ptr %4, align 8, !tbaa !19
  call void @llvm.lifetime.start.p0(i64 8, ptr %5) #22
  %6 = load ptr, ptr %4, align 8, !tbaa !19
  %7 = call i64 @rbimpl_strlen(ptr noundef %6)
  store i64 %7, ptr %5, align 8, !tbaa !6
  %8 = load i64, ptr %3, align 8, !tbaa !6
  %9 = load ptr, ptr %4, align 8, !tbaa !19
  %10 = load i64, ptr %5, align 8, !tbaa !6
  %11 = call i64 @rb_str_cat(i64 noundef %8, ptr noundef %9, i64 noundef %10)
  call void @llvm.lifetime.end.p0(i64 8, ptr %5) #22
  ret i64 %11
}

; Function Attrs: inlinehint nounwind sspstrong willreturn memory(read) uwtable
define internal i64 @RSTRING_LEN(i64 noundef %0) #5 {
  %2 = alloca i64, align 8
  store i64 %0, ptr %2, align 8, !tbaa !6
  %3 = load i64, ptr %2, align 8, !tbaa !6
  %4 = inttoptr i64 %3 to ptr
  %5 = getelementptr inbounds nuw %struct.RString, ptr %4, i32 0, i32 1
  %6 = load i64, ptr %5, align 8, !tbaa !37
  ret i64 %6
}

; Function Attrs: inlinehint nounwind sspstrong willreturn memory(none) uwtable
define internal zeroext i1 @RB_NIL_P(i64 noundef %0) #9 {
  %2 = alloca i64, align 8
  store i64 %0, ptr %2, align 8, !tbaa !6
  %3 = load i64, ptr %2, align 8, !tbaa !6
  %4 = icmp eq i64 %3, 4
  ret i1 %4
}

; Function Attrs: nounwind sspstrong uwtable
define i64 @ossl_make_error(i64 noundef %0, i64 noundef %1) #0 {
  %3 = alloca i64, align 8
  %4 = alloca i64, align 8
  %5 = alloca i64, align 8
  %6 = alloca ptr, align 8
  %7 = alloca i32, align 4
  %8 = alloca ptr, align 8
  store i64 %0, ptr %3, align 8, !tbaa !6
  store i64 %1, ptr %4, align 8, !tbaa !6
  call void @llvm.lifetime.start.p0(i64 8, ptr %5) #22
  call void @llvm.lifetime.start.p0(i64 8, ptr %6) #22
  call void @llvm.lifetime.start.p0(i64 4, ptr %7) #22
  %9 = load i64, ptr %4, align 8, !tbaa !6
  %10 = call zeroext i1 @RB_NIL_P(i64 noundef %9) #27
  br i1 %10, label %11, label %13

11:                                               ; preds = %2
  %12 = call i64 @rb_str_new_static(ptr noundef null, i64 noundef 0)
  store i64 %12, ptr %4, align 8, !tbaa !6
  br label %13

13:                                               ; preds = %11, %2
  %14 = call i64 @ERR_peek_last_error_all(ptr noundef null, ptr noundef null, ptr noundef null, ptr noundef %6, ptr noundef %7)
  store i64 %14, ptr %5, align 8, !tbaa !6
  %15 = load i64, ptr %5, align 8, !tbaa !6
  %16 = icmp ne i64 %15, 0
  br i1 %16, label %17, label %47

17:                                               ; preds = %13
  call void @llvm.lifetime.start.p0(i64 8, ptr %8) #22
  %18 = load i64, ptr %5, align 8, !tbaa !6
  %19 = call ptr @ERR_reason_error_string(i64 noundef %18)
  store ptr %19, ptr %8, align 8, !tbaa !19
  %20 = load i64, ptr %4, align 8, !tbaa !6
  %21 = call i64 @RSTRING_LEN(i64 noundef %20) #24
  %22 = icmp ne i64 %21, 0
  br i1 %22, label %23, label %26

23:                                               ; preds = %17
  %24 = load i64, ptr %4, align 8, !tbaa !6
  %25 = call i64 @rbimpl_str_cat_cstr(i64 noundef %24, ptr noundef @.str.7)
  br label %26

26:                                               ; preds = %23, %17
  %27 = load i64, ptr %4, align 8, !tbaa !6
  %28 = load ptr, ptr %8, align 8, !tbaa !19
  %29 = icmp ne ptr %28, null
  br i1 %29, label %30, label %32

30:                                               ; preds = %26
  %31 = load ptr, ptr %8, align 8, !tbaa !19
  br label %33

32:                                               ; preds = %26
  br label %33

33:                                               ; preds = %32, %30
  %34 = phi ptr [ %31, %30 ], [ @.str.8, %32 ]
  %35 = call i64 @rb_str_cat_cstr(i64 noundef %27, ptr noundef %34)
  %36 = load i32, ptr %7, align 4, !tbaa !13
  %37 = and i32 %36, 2
  %38 = icmp ne i32 %37, 0
  br i1 %38, label %39, label %46

39:                                               ; preds = %33
  %40 = load ptr, ptr %6, align 8, !tbaa !19
  %41 = icmp ne ptr %40, null
  br i1 %41, label %42, label %46

42:                                               ; preds = %39
  %43 = load i64, ptr %4, align 8, !tbaa !6
  %44 = load ptr, ptr %6, align 8, !tbaa !19
  %45 = call i64 (i64, ptr, ...) @rb_str_catf(i64 noundef %43, ptr noundef @.str.9, ptr noundef %44)
  br label %46

46:                                               ; preds = %42, %39, %33
  call void @ossl_clear_error()
  call void @llvm.lifetime.end.p0(i64 8, ptr %8) #22
  br label %47

47:                                               ; preds = %46, %13
  %48 = load i64, ptr %3, align 8, !tbaa !6
  %49 = load i64, ptr %4, align 8, !tbaa !6
  %50 = call i64 @rb_exc_new_str(i64 noundef %48, i64 noundef %49)
  call void @llvm.lifetime.end.p0(i64 4, ptr %7) #22
  call void @llvm.lifetime.end.p0(i64 8, ptr %6) #22
  call void @llvm.lifetime.end.p0(i64 8, ptr %5) #22
  ret i64 %50
}