; Function Attrs: nounwind sspstrong uwtable
define i64 @ossl_make_error(i64 noundef %0, i64 noundef %1) local_unnamed_addr #0 {
  %3 = alloca ptr, align 8
  %4 = alloca i32, align 4
  call void @llvm.lifetime.start.p0(i64 8, ptr nonnull %3) #15
  call void @llvm.lifetime.start.p0(i64 4, ptr nonnull %4) #15
  %5 = icmp eq i64 %1, 4
  br i1 %5, label %6, label %8

6:                                                ; preds = %2
  %7 = tail call i64 @rb_str_new_static(ptr noundef null, i64 noundef 0) #15
  br label %8

8:                                                ; preds = %6, %2
  %.0 = phi i64 [ %7, %6 ], [ %1, %2 ]
  %9 = call i64 @ERR_peek_last_error_all(ptr noundef null, ptr noundef null, ptr noundef null, ptr noundef nonnull %3, ptr noundef nonnull %4) #15
  %.not = icmp eq i64 %9, 0
  br i1 %.not, label %28, label %10

10:                                               ; preds = %8
  %11 = call ptr @ERR_reason_error_string(i64 noundef %9) #15
  %12 = inttoptr i64 %.0 to ptr
  %13 = getelementptr inbounds nuw i8, ptr %12, i64 16
  %14 = load i64, ptr %13, align 8, !tbaa !30
  %.not13 = icmp eq i64 %14, 0
  br i1 %.not13, label %17, label %15

15:                                               ; preds = %10
  %16 = call i64 @rb_str_cat(i64 noundef %.0, ptr noundef nonnull @.str.7, i64 noundef 2) #15
  br label %17

17:                                               ; preds = %15, %10
  %.not14 = icmp eq ptr %11, null
  %18 = select i1 %.not14, ptr @.str.8, ptr %11
  %19 = call i64 @rb_str_cat_cstr(i64 noundef %.0, ptr noundef nonnull %18) #15
  %20 = load i32, ptr %4, align 4, !tbaa !17
  %21 = and i32 %20, 2
  %22 = icmp ne i32 %21, 0
  %23 = load ptr, ptr %3, align 8
  %24 = icmp ne ptr %23, null
  %or.cond = select i1 %22, i1 %24, i1 false
  br i1 %or.cond, label %25, label %27

25:                                               ; preds = %17
  %26 = call i64 (i64, ptr, ...) @rb_str_catf(i64 noundef %.0, ptr noundef nonnull @.str.9, ptr noundef nonnull %23) #15
  br label %27

27:                                               ; preds = %25, %17
  call void @ossl_clear_error()
  br label %28

28:                                               ; preds = %27, %8
  %29 = call i64 @rb_exc_new_str(i64 noundef %0, i64 noundef %.0) #15
  call void @llvm.lifetime.end.p0(i64 4, ptr nonnull %4) #15
  call void @llvm.lifetime.end.p0(i64 8, ptr nonnull %3) #15
  ret i64 %29
}